target datalayout = "e-m:e-p270:32:32-p271:32:32-p272:64:64-i64:64-i128:128-f80:128-n8:16:32:64-S128"
target triple = "x86_64-pc-linux-gnu"

; Function Attrs: nounwind uwtable
define internal void @Float32_To_Int24_DitherClip(ptr noundef %0, i32 noundef %1, ptr noundef %2, i32 noundef %3, i32 noundef %4, ptr noundef %5) #0 {
  %7 = alloca ptr, align 8
  %8 = alloca i32, align 4
  %9 = alloca ptr, align 8
  %10 = alloca i32, align 4
  %11 = alloca i32, align 4
  %12 = alloca ptr, align 8
  %13 = alloca ptr, align 8
  %14 = alloca ptr, align 8
  %15 = alloca i32, align 4
  %16 = alloca double, align 8
  %17 = alloca double, align 8
  store ptr %0, ptr %7, align 8, !tbaa !70
  store i32 %1, ptr %8, align 4, !tbaa !71
  store ptr %2, ptr %9, align 8, !tbaa !70
  store i32 %3, ptr %10, align 4, !tbaa !71
  store i32 %4, ptr %11, align 4, !tbaa !71
  store ptr %5, ptr %12, align 8, !tbaa !73
  call void @llvm.lifetime.start.p0(i64 8, ptr %13) #4
  %18 = load ptr, ptr %9, align 8, !tbaa !70
  store ptr %18, ptr %13, align 8, !tbaa !75
  call void @llvm.lifetime.start.p0(i64 8, ptr %14) #4
  %19 = load ptr, ptr %7, align 8, !tbaa !70
  store ptr %19, ptr %14, align 8, !tbaa !87
  call void @llvm.lifetime.start.p0(i64 4, ptr %15) #4
  br label %20

20:                                               ; preds = %44, %6
  %21 = load i32, ptr %11, align 4, !tbaa !71
  %22 = add i32 %21, -1
  store i32 %22, ptr %11, align 4, !tbaa !71
  %23 = icmp ne i32 %21, 0
  br i1 %23, label %24, label %72

24:                                               ; preds = %20
  call void @llvm.lifetime.start.p0(i64 8, ptr %16) #4
  %25 = load ptr, ptr %12, align 8, !tbaa !73
  %26 = call float @PaUtil_GenerateFloatTriangularDither(ptr noundef %25)
  %27 = fpext float %26 to double
  store double %27, ptr %16, align 8, !tbaa !81
  call void @llvm.lifetime.start.p0(i64 8, ptr %17) #4
  %28 = load ptr, ptr %13, align 8, !tbaa !75
  %29 = load float, ptr %28, align 4, !tbaa !79
  %30 = fpext float %29 to double
  %31 = load double, ptr %16, align 8, !tbaa !81
  %32 = call double @llvm.fmuladd.f64(double %30, double 0x41DFFFFFFF800000, double %31)
  store double %32, ptr %17, align 8, !tbaa !81
  %33 = load double, ptr %17, align 8, !tbaa !81
  %34 = fcmp olt double %33, 0xC1E0000000000000
  br i1 %34, label %35, label %36

35:                                               ; preds = %24
  br label %44

36:                                               ; preds = %24
  %37 = load double, ptr %17, align 8, !tbaa !81
  %38 = fcmp ogt double %37, 0x41DFFFFFFFC00000
  br i1 %38, label %39, label %40

39:                                               ; preds = %36
  br label %42

40:                                               ; preds = %36
  %41 = load double, ptr %17, align 8, !tbaa !81
  br label %42

42:                                               ; preds = %40, %39
  %43 = phi double [ 0x41DFFFFFFFC00000, %39 ], [ %41, %40 ]
  br label %44

44:                                               ; preds = %42, %35
  %45 = phi double [ 0xC1E0000000000000, %35 ], [ %43, %42 ]
  store double %45, ptr %17, align 8, !tbaa !81
  %46 = load double, ptr %17, align 8, !tbaa !81
  %47 = fptosi double %46 to i32
  store i32 %47, ptr %15, align 4, !tbaa !71
  %48 = load i32, ptr %15, align 4, !tbaa !71
  %49 = ashr i32 %48, 8
  %50 = trunc i32 %49 to i8
  %51 = load ptr, ptr %14, align 8, !tbaa !87
  %52 = getelementptr inbounds i8, ptr %51, i64 0
  store i8 %50, ptr %52, align 1, !tbaa !89
  %53 = load i32, ptr %15, align 4, !tbaa !71
  %54 = ashr i32 %53, 16
  %55 = trunc i32 %54 to i8
  %56 = load ptr, ptr %14, align 8, !tbaa !87
  %57 = getelementptr inbounds i8, ptr %56, i64 1
  store i8 %55, ptr %57, align 1, !tbaa !89
  %58 = load i32, ptr %15, align 4, !tbaa !71
  %59 = ashr i32 %58, 24
  %60 = trunc i32 %59 to i8
  %61 = load ptr, ptr %14, align 8, !tbaa !87
  %62 = getelementptr inbounds i8, ptr %61, i64 2
  store i8 %60, ptr %62, align 1, !tbaa !89
  %63 = load i32, ptr %10, align 4, !tbaa !71
  %64 = load ptr, ptr %13, align 8, !tbaa !75
  %65 = sext i32 %63 to i64
  %66 = getelementptr inbounds float, ptr %64, i64 %65
  store ptr %66, ptr %13, align 8, !tbaa !75
  %67 = load i32, ptr %8, align 4, !tbaa !71
  %68 = mul nsw i32 %67, 3
  %69 = load ptr, ptr %14, align 8, !tbaa !87
  %70 = sext i32 %68 to i64
  %71 = getelementptr inbounds i8, ptr %69, i64 %70
  store ptr %71, ptr %14, align 8, !tbaa !87
  call void @llvm.lifetime.end.p0(i64 8, ptr %17) #4
  call void @llvm.lifetime.end.p0(i64 8, ptr %16) #4
  br label %20, !llvm.loop !93

72:                                               ; preds = %20
  call void @llvm.lifetime.end.p0(i64 4, ptr %15) #4
  call void @llvm.lifetime.end.p0(i64 8, ptr %14) #4
  call void @llvm.lifetime.end.p0(i64 8, ptr %13) #4
  ret void
}