; Function Attrs: nounwind uwtable
define internal void @Float32_To_Int24_DitherClip(ptr noundef writeonly captures(none) %0, i32 noundef %1, ptr noundef readonly captures(none) %2, i32 noundef %3, i32 noundef %4, ptr noundef %5) #3 {
  %.not22 = icmp eq i32 %4, 0
  br i1 %.not22, label %._crit_edge, label %.lr.ph

.lr.ph:                                           ; preds = %6
  %7 = sext i32 %3 to i64
  %8 = mul nsw i32 %1, 3
  %9 = sext i32 %8 to i64
  br label %10

10:                                               ; preds = %.lr.ph, %22
  %.in = phi i32 [ %4, %.lr.ph ], [ %11, %22 ]
  %.01924 = phi ptr [ %2, %.lr.ph ], [ %32, %22 ]
  %.02023 = phi ptr [ %0, %.lr.ph ], [ %33, %22 ]
  %11 = add i32 %.in, -1
  %12 = tail call float @PaUtil_GenerateFloatTriangularDither(ptr noundef %5) #9
  %13 = fpext float %12 to double
  %14 = load float, ptr %.01924, align 4, !tbaa !68
  %15 = fpext float %14 to double
  %16 = tail call double @llvm.fmuladd.f64(double %15, double 0x41DFFFFFFF800000, double %13)
  %17 = fcmp olt double %16, 0xC1E0000000000000
  br i1 %17, label %22, label %18

18:                                               ; preds = %10
  %19 = fcmp ogt double %16, 0x41DFFFFFFFC00000
  %20 = select i1 %19, double 0x41DFFFFFFFC00000, double %16
  %21 = fptosi double %20 to i32
  br label %22

22:                                               ; preds = %10, %18
  %23 = phi i32 [ %21, %18 ], [ -2147483648, %10 ]
  %24 = lshr i32 %23, 8
  %25 = trunc i32 %24 to i8
  store i8 %25, ptr %.02023, align 1, !tbaa !76
  %26 = lshr i32 %23, 16
  %27 = trunc i32 %26 to i8
  %28 = getelementptr inbounds nuw i8, ptr %.02023, i64 1
  store i8 %27, ptr %28, align 1, !tbaa !76
  %29 = lshr i32 %23, 24
  %30 = trunc nuw i32 %29 to i8
  %31 = getelementptr inbounds nuw i8, ptr %.02023, i64 2
  store i8 %30, ptr %31, align 1, !tbaa !76
  %32 = getelementptr inbounds float, ptr %.01924, i64 %7
  %33 = getelementptr inbounds i8, ptr %.02023, i64 %9
  %.not = icmp eq i32 %11, 0
  br i1 %.not, label %._crit_edge, label %10, !llvm.loop !80

._crit_edge:                                      ; preds = %22, %6
  ret void
}